target datalayout = "e-m:e-p270:32:32-p271:32:32-p272:64:64-i64:64-i128:128-f80:128-n8:16:32:64-S128"
target triple = "x86_64-pc-linux-gnu"

%class.anon.935 = type { ptr }
%"struct.__gnu_cxx::__ops::_Iter_comp_iter.945" = type { %class.anon.935 }

; Function Attrs: mustprogress nounwind uwtable
define internal void @"_ZSt22__chunk_insertion_sortIPPN4llvm10BasicBlockElN9__gnu_cxx5__ops15_Iter_comp_iterIZL24rebuildLoopAfterUnswitchRNS0_4LoopENS0_8ArrayRefIS2_EERNS0_8LoopInfoERNS0_15SmallVectorImplIPS7_EEPNS0_15ScalarEvolutionEE3$_2EEEvT_SL_T0_T1_"(ptr noundef %0, ptr noundef %1, i64 noundef %2, ptr %3) #1 {
  %5 = alloca %"struct.__gnu_cxx::__ops::_Iter_comp_iter.945", align 8
  %6 = alloca ptr, align 8
  %7 = alloca ptr, align 8
  %8 = alloca i64, align 8
  %9 = alloca %"struct.__gnu_cxx::__ops::_Iter_comp_iter.945", align 8
  %10 = alloca %"struct.__gnu_cxx::__ops::_Iter_comp_iter.945", align 8
  %11 = getelementptr inbounds nuw %"struct.__gnu_cxx::__ops::_Iter_comp_iter.945", ptr %5, i32 0, i32 0
  %12 = getelementptr inbounds nuw %class.anon.935, ptr %11, i32 0, i32 0
  store ptr %3, ptr %12, align 8
  store ptr %0, ptr %6, align 8
  store ptr %1, ptr %7, align 8
  store i64 %2, ptr %8, align 8
  br label %13

13:                                               ; preds = %22, %4
  %14 = load ptr, ptr %7, align 8
  %15 = load ptr, ptr %6, align 8
  %16 = ptrtoint ptr %14 to i64
  %17 = ptrtoint ptr %15 to i64
  %18 = sub i64 %16, %17
  %19 = sdiv exact i64 %18, 8
  %20 = load i64, ptr %8, align 8
  %21 = icmp sge i64 %19, %20
  br i1 %21, label %22, label %33

22:                                               ; preds = %13
  %23 = load ptr, ptr %6, align 8
  %24 = load ptr, ptr %6, align 8
  %25 = load i64, ptr %8, align 8
  %26 = getelementptr inbounds ptr, ptr %24, i64 %25
  call void @llvm.memcpy.p0.p0.i64(ptr align 8 %9, ptr align 8 %5, i64 8, i1 false)
  %27 = getelementptr inbounds nuw %"struct.__gnu_cxx::__ops::_Iter_comp_iter.945", ptr %9, i32 0, i32 0
  %28 = getelementptr inbounds nuw %class.anon.935, ptr %27, i32 0, i32 0
  %29 = load ptr, ptr %28, align 8
  call void @"_ZSt16__insertion_sortIPPN4llvm10BasicBlockEN9__gnu_cxx5__ops15_Iter_comp_iterIZL24rebuildLoopAfterUnswitchRNS0_4LoopENS0_8ArrayRefIS2_EERNS0_8LoopInfoERNS0_15SmallVectorImplIPS7_EEPNS0_15ScalarEvolutionEE3$_2EEEvT_SL_T0_"(ptr noundef %23, ptr noundef %26, ptr %29)
  %30 = load i64, ptr %8, align 8
  %31 = load ptr, ptr %6, align 8
  %32 = getelementptr inbounds ptr, ptr %31, i64 %30
  store ptr %32, ptr %6, align 8
  br label %13, !llvm.loop !203

33:                                               ; preds = %13
  %34 = load ptr, ptr %6, align 8
  %35 = load ptr, ptr %7, align 8
  call void @llvm.memcpy.p0.p0.i64(ptr align 8 %10, ptr align 8 %5, i64 8, i1 false)
  %36 = getelementptr inbounds nuw %"struct.__gnu_cxx::__ops::_Iter_comp_iter.945", ptr %10, i32 0, i32 0
  %37 = getelementptr inbounds nuw %class.anon.935, ptr %36, i32 0, i32 0
  %38 = load ptr, ptr %37, align 8
  call void @"_ZSt16__insertion_sortIPPN4llvm10BasicBlockEN9__gnu_cxx5__ops15_Iter_comp_iterIZL24rebuildLoopAfterUnswitchRNS0_4LoopENS0_8ArrayRefIS2_EERNS0_8LoopInfoERNS0_15SmallVectorImplIPS7_EEPNS0_15ScalarEvolutionEE3$_2EEEvT_SL_T0_"(ptr noundef %34, ptr noundef %35, ptr %38)
  ret void
}

; Function Attrs: mustprogress nounwind uwtable
define internal void @"_ZSt24__merge_sort_with_bufferIPPN4llvm10BasicBlockES3_N9__gnu_cxx5__ops15_Iter_comp_iterIZL24rebuildLoopAfterUnswitchRNS0_4LoopENS0_8ArrayRefIS2_EERNS0_8LoopInfoERNS0_15SmallVectorImplIPS7_EEPNS0_15ScalarEvolutionEE3$_2EEEvT_SL_T0_T1_"(ptr noundef %0, ptr noundef %1, ptr noundef %2, ptr %3) #1 {
  %5 = alloca %"struct.__gnu_cxx::__ops::_Iter_comp_iter.945", align 8
  %6 = alloca ptr, align 8
  %7 = alloca ptr, align 8
  %8 = alloca ptr, align 8
  %9 = alloca i64, align 8
  %10 = alloca ptr, align 8
  %11 = alloca i64, align 8
  %12 = alloca %"struct.__gnu_cxx::__ops::_Iter_comp_iter.945", align 8
  %13 = alloca %"struct.__gnu_cxx::__ops::_Iter_comp_iter.945", align 8
  %14 = alloca %"struct.__gnu_cxx::__ops::_Iter_comp_iter.945", align 8
  %15 = getelementptr inbounds nuw %"struct.__gnu_cxx::__ops::_Iter_comp_iter.945", ptr %5, i32 0, i32 0
  %16 = getelementptr inbounds nuw %class.anon.935, ptr %15, i32 0, i32 0
  store ptr %3, ptr %16, align 8
  store ptr %0, ptr %6, align 8
  store ptr %1, ptr %7, align 8
  store ptr %2, ptr %8, align 8
  %17 = load ptr, ptr %7, align 8
  %18 = load ptr, ptr %6, align 8
  %19 = ptrtoint ptr %17 to i64
  %20 = ptrtoint ptr %18 to i64
  %21 = sub i64 %19, %20
  %22 = sdiv exact i64 %21, 8
  store i64 %22, ptr %9, align 8
  %23 = load ptr, ptr %8, align 8
  %24 = load i64, ptr %9, align 8
  %25 = getelementptr inbounds ptr, ptr %23, i64 %24
  store ptr %25, ptr %10, align 8
  store i64 7, ptr %11, align 8
  %26 = load ptr, ptr %6, align 8
  %27 = load ptr, ptr %7, align 8
  %28 = load i64, ptr %11, align 8
  call void @llvm.memcpy.p0.p0.i64(ptr align 8 %12, ptr align 8 %5, i64 8, i1 false)
  %29 = getelementptr inbounds nuw %"struct.__gnu_cxx::__ops::_Iter_comp_iter.945", ptr %12, i32 0, i32 0
  %30 = getelementptr inbounds nuw %class.anon.935, ptr %29, i32 0, i32 0
  %31 = load ptr, ptr %30, align 8
  call void @"_ZSt22__chunk_insertion_sortIPPN4llvm10BasicBlockElN9__gnu_cxx5__ops15_Iter_comp_iterIZL24rebuildLoopAfterUnswitchRNS0_4LoopENS0_8ArrayRefIS2_EERNS0_8LoopInfoERNS0_15SmallVectorImplIPS7_EEPNS0_15ScalarEvolutionEE3$_2EEEvT_SL_T0_T1_"(ptr noundef %26, ptr noundef %27, i64 noundef %28, ptr %31)
  br label %32

32:                                               ; preds = %36, %4
  %33 = load i64, ptr %11, align 8
  %34 = load i64, ptr %9, align 8
  %35 = icmp slt i64 %33, %34
  br i1 %35, label %36, label %55

36:                                               ; preds = %32
  %37 = load ptr, ptr %6, align 8
  %38 = load ptr, ptr %7, align 8
  %39 = load ptr, ptr %8, align 8
  %40 = load i64, ptr %11, align 8
  call void @llvm.memcpy.p0.p0.i64(ptr align 8 %13, ptr align 8 %5, i64 8, i1 false)
  %41 = getelementptr inbounds nuw %"struct.__gnu_cxx::__ops::_Iter_comp_iter.945", ptr %13, i32 0, i32 0
  %42 = getelementptr inbounds nuw %class.anon.935, ptr %41, i32 0, i32 0
  %43 = load ptr, ptr %42, align 8
  call void @"_ZSt17__merge_sort_loopIPPN4llvm10BasicBlockES3_lN9__gnu_cxx5__ops15_Iter_comp_iterIZL24rebuildLoopAfterUnswitchRNS0_4LoopENS0_8ArrayRefIS2_EERNS0_8LoopInfoERNS0_15SmallVectorImplIPS7_EEPNS0_15ScalarEvolutionEE3$_2EEEvT_SL_T0_T1_T2_"(ptr noundef %37, ptr noundef %38, ptr noundef %39, i64 noundef %40, ptr %43)
  %44 = load i64, ptr %11, align 8
  %45 = mul nsw i64 %44, 2
  store i64 %45, ptr %11, align 8
  %46 = load ptr, ptr %8, align 8
  %47 = load ptr, ptr %10, align 8
  %48 = load ptr, ptr %6, align 8
  %49 = load i64, ptr %11, align 8
  call void @llvm.memcpy.p0.p0.i64(ptr align 8 %14, ptr align 8 %5, i64 8, i1 false)
  %50 = getelementptr inbounds nuw %"struct.__gnu_cxx::__ops::_Iter_comp_iter.945", ptr %14, i32 0, i32 0
  %51 = getelementptr inbounds nuw %class.anon.935, ptr %50, i32 0, i32 0
  %52 = load ptr, ptr %51, align 8
  call void @"_ZSt17__merge_sort_loopIPPN4llvm10BasicBlockES3_lN9__gnu_cxx5__ops15_Iter_comp_iterIZL24rebuildLoopAfterUnswitchRNS0_4LoopENS0_8ArrayRefIS2_EERNS0_8LoopInfoERNS0_15SmallVectorImplIPS7_EEPNS0_15ScalarEvolutionEE3$_2EEEvT_SL_T0_T1_T2_"(ptr noundef %46, ptr noundef %47, ptr noundef %48, i64 noundef %49, ptr %52)
  %53 = load i64, ptr %11, align 8
  %54 = mul nsw i64 %53, 2
  store i64 %54, ptr %11, align 8
  br label %32, !llvm.loop !202

55:                                               ; preds = %32
  ret void
}

; Function Attrs: mustprogress nounwind uwtable
define internal void @"_ZSt22__stable_sort_adaptiveIPPN4llvm10BasicBlockES3_lN9__gnu_cxx5__ops15_Iter_comp_iterIZL24rebuildLoopAfterUnswitchRNS0_4LoopENS0_8ArrayRefIS2_EERNS0_8LoopInfoERNS0_15SmallVectorImplIPS7_EEPNS0_15ScalarEvolutionEE3$_2EEEvT_SL_T0_T1_T2_"(ptr noundef %0, ptr noundef %1, ptr noundef %2, i64 noundef %3, ptr %4) #1 {
  %6 = alloca %"struct.__gnu_cxx::__ops::_Iter_comp_iter.945", align 8
  %7 = alloca ptr, align 8
  %8 = alloca ptr, align 8
  %9 = alloca ptr, align 8
  %10 = alloca i64, align 8
  %11 = alloca i64, align 8
  %12 = alloca ptr, align 8
  %13 = alloca %"struct.__gnu_cxx::__ops::_Iter_comp_iter.945", align 8
  %14 = alloca %"struct.__gnu_cxx::__ops::_Iter_comp_iter.945", align 8
  %15 = alloca %"struct.__gnu_cxx::__ops::_Iter_comp_iter.945", align 8
  %16 = alloca %"struct.__gnu_cxx::__ops::_Iter_comp_iter.945", align 8
  %17 = alloca %"struct.__gnu_cxx::__ops::_Iter_comp_iter.945", align 8
  %18 = getelementptr inbounds nuw %"struct.__gnu_cxx::__ops::_Iter_comp_iter.945", ptr %6, i32 0, i32 0
  %19 = getelementptr inbounds nuw %class.anon.935, ptr %18, i32 0, i32 0
  store ptr %4, ptr %19, align 8
  store ptr %0, ptr %7, align 8
  store ptr %1, ptr %8, align 8
  store ptr %2, ptr %9, align 8
  store i64 %3, ptr %10, align 8
  %20 = load ptr, ptr %8, align 8
  %21 = load ptr, ptr %7, align 8
  %22 = ptrtoint ptr %20 to i64
  %23 = ptrtoint ptr %21 to i64
  %24 = sub i64 %22, %23
  %25 = sdiv exact i64 %24, 8
  %26 = add nsw i64 %25, 1
  %27 = sdiv i64 %26, 2
  store i64 %27, ptr %11, align 8
  %28 = load ptr, ptr %7, align 8
  %29 = load i64, ptr %11, align 8
  %30 = getelementptr inbounds ptr, ptr %28, i64 %29
  store ptr %30, ptr %12, align 8
  %31 = load i64, ptr %11, align 8
  %32 = load i64, ptr %10, align 8
  %33 = icmp sgt i64 %31, %32
  br i1 %33, label %34, label %49

34:                                               ; preds = %5
  %35 = load ptr, ptr %7, align 8
  %36 = load ptr, ptr %12, align 8
  %37 = load ptr, ptr %9, align 8
  %38 = load i64, ptr %10, align 8
  call void @llvm.memcpy.p0.p0.i64(ptr align 8 %13, ptr align 8 %6, i64 8, i1 false)
  %39 = getelementptr inbounds nuw %"struct.__gnu_cxx::__ops::_Iter_comp_iter.945", ptr %13, i32 0, i32 0
  %40 = getelementptr inbounds nuw %class.anon.935, ptr %39, i32 0, i32 0
  %41 = load ptr, ptr %40, align 8
  call void @"_ZSt22__stable_sort_adaptiveIPPN4llvm10BasicBlockES3_lN9__gnu_cxx5__ops15_Iter_comp_iterIZL24rebuildLoopAfterUnswitchRNS0_4LoopENS0_8ArrayRefIS2_EERNS0_8LoopInfoERNS0_15SmallVectorImplIPS7_EEPNS0_15ScalarEvolutionEE3$_2EEEvT_SL_T0_T1_T2_"(ptr noundef %35, ptr noundef %36, ptr noundef %37, i64 noundef %38, ptr %41)
  %42 = load ptr, ptr %12, align 8
  %43 = load ptr, ptr %8, align 8
  %44 = load ptr, ptr %9, align 8
  %45 = load i64, ptr %10, align 8
  call void @llvm.memcpy.p0.p0.i64(ptr align 8 %14, ptr align 8 %6, i64 8, i1 false)
  %46 = getelementptr inbounds nuw %"struct.__gnu_cxx::__ops::_Iter_comp_iter.945", ptr %14, i32 0, i32 0
  %47 = getelementptr inbounds nuw %class.anon.935, ptr %46, i32 0, i32 0
  %48 = load ptr, ptr %47, align 8
  call void @"_ZSt22__stable_sort_adaptiveIPPN4llvm10BasicBlockES3_lN9__gnu_cxx5__ops15_Iter_comp_iterIZL24rebuildLoopAfterUnswitchRNS0_4LoopENS0_8ArrayRefIS2_EERNS0_8LoopInfoERNS0_15SmallVectorImplIPS7_EEPNS0_15ScalarEvolutionEE3$_2EEEvT_SL_T0_T1_T2_"(ptr noundef %42, ptr noundef %43, ptr noundef %44, i64 noundef %45, ptr %48)
  br label %62

49:                                               ; preds = %5
  %50 = load ptr, ptr %7, align 8
  %51 = load ptr, ptr %12, align 8
  %52 = load ptr, ptr %9, align 8
  call void @llvm.memcpy.p0.p0.i64(ptr align 8 %15, ptr align 8 %6, i64 8, i1 false)
  %53 = getelementptr inbounds nuw %"struct.__gnu_cxx::__ops::_Iter_comp_iter.945", ptr %15, i32 0, i32 0
  %54 = getelementptr inbounds nuw %class.anon.935, ptr %53, i32 0, i32 0
  %55 = load ptr, ptr %54, align 8
  call void @"_ZSt24__merge_sort_with_bufferIPPN4llvm10BasicBlockES3_N9__gnu_cxx5__ops15_Iter_comp_iterIZL24rebuildLoopAfterUnswitchRNS0_4LoopENS0_8ArrayRefIS2_EERNS0_8LoopInfoERNS0_15SmallVectorImplIPS7_EEPNS0_15ScalarEvolutionEE3$_2EEEvT_SL_T0_T1_"(ptr noundef %50, ptr noundef %51, ptr noundef %52, ptr %55)
  %56 = load ptr, ptr %12, align 8
  %57 = load ptr, ptr %8, align 8
  %58 = load ptr, ptr %9, align 8
  call void @llvm.memcpy.p0.p0.i64(ptr align 8 %16, ptr align 8 %6, i64 8, i1 false)
  %59 = getelementptr inbounds nuw %"struct.__gnu_cxx::__ops::_Iter_comp_iter.945", ptr %16, i32 0, i32 0
  %60 = getelementptr inbounds nuw %class.anon.935, ptr %59, i32 0, i32 0
  %61 = load ptr, ptr %60, align 8
  call void @"_ZSt24__merge_sort_with_bufferIPPN4llvm10BasicBlockES3_N9__gnu_cxx5__ops15_Iter_comp_iterIZL24rebuildLoopAfterUnswitchRNS0_4LoopENS0_8ArrayRefIS2_EERNS0_8LoopInfoERNS0_15SmallVectorImplIPS7_EEPNS0_15ScalarEvolutionEE3$_2EEEvT_SL_T0_T1_"(ptr noundef %56, ptr noundef %57, ptr noundef %58, ptr %61)
  br label %62

62:                                               ; preds = %49, %34
  %63 = load ptr, ptr %7, align 8
  %64 = load ptr, ptr %12, align 8
  %65 = load ptr, ptr %8, align 8
  %66 = load ptr, ptr %12, align 8
  %67 = load ptr, ptr %7, align 8
  %68 = ptrtoint ptr %66 to i64
  %69 = ptrtoint ptr %67 to i64
  %70 = sub i64 %68, %69
  %71 = sdiv exact i64 %70, 8
  %72 = load ptr, ptr %8, align 8
  %73 = load ptr, ptr %12, align 8
  %74 = ptrtoint ptr %72 to i64
  %75 = ptrtoint ptr %73 to i64
  %76 = sub i64 %74, %75
  %77 = sdiv exact i64 %76, 8
  %78 = load ptr, ptr %9, align 8
  %79 = load i64, ptr %10, align 8
  call void @llvm.memcpy.p0.p0.i64(ptr align 8 %17, ptr align 8 %6, i64 8, i1 false)
  %80 = getelementptr inbounds nuw %"struct.__gnu_cxx::__ops::_Iter_comp_iter.945", ptr %17, i32 0, i32 0
  %81 = getelementptr inbounds nuw %class.anon.935, ptr %80, i32 0, i32 0
  %82 = load ptr, ptr %81, align 8
  %83 = ptrtoint ptr %82 to i64
  call void @"_ZSt16__merge_adaptiveIPPN4llvm10BasicBlockElS3_N9__gnu_cxx5__ops15_Iter_comp_iterIZL24rebuildLoopAfterUnswitchRNS0_4LoopENS0_8ArrayRefIS2_EERNS0_8LoopInfoERNS0_15SmallVectorImplIPS7_EEPNS0_15ScalarEvolutionEE3$_2EEEvT_SL_SL_T0_SM_T1_SM_T2_"(ptr noundef %63, ptr noundef %64, ptr noundef %65, i64 noundef %71, i64 noundef %77, ptr noundef %78, i64 noundef %79, i64 %83)
  ret void
}